target datalayout = "e-m:e-p270:32:32-p271:32:32-p272:64:64-i64:64-i128:128-f80:128-n8:16:32:64-S128"
target triple = "x86_64-pc-linux-gnu"

%class.ZPage = type { i8, i8, i8, i8, i32, i32, %class.ZVirtualMemory, i64, %class.ZLiveMap, %class.ZRememberedSet, i64, %class.ZPhysicalMemory, %class.ZListNode }
%class.ZVirtualMemory = type { i64, i64 }
%class.ZLiveMap = type { i32, i32, i64, i64, i64, %class.ZBitMap, i64 }
%class.ZBitMap = type { %class.CHeapBitMap.base, [7 x i8] }
%class.CHeapBitMap.base = type <{ %class.GrowableBitMap, i8 }>
%class.GrowableBitMap = type { %class.BitMap }
%class.BitMap = type { ptr, i64 }
%class.ZRememberedSet = type { [2 x %class.ZMovableBitMap] }
%class.ZMovableBitMap = type { %class.CHeapBitMap.base, [7 x i8] }
%class.ZPhysicalMemory = type { %class.GrowableArrayCHeap }
%class.GrowableArrayCHeap = type { %class.GrowableArrayWithAllocator }
%class.GrowableArrayWithAllocator = type { %class.GrowableArrayView }
%class.GrowableArrayView = type { %class.GrowableArrayBase, ptr }
%class.GrowableArrayBase = type { i32, i32 }
%class.ZListNode = type { ptr, ptr }
%class.ZPhysicalMemorySegment = type <{ i64, i64, i8, [7 x i8] }>

; Function Attrs: mustprogress nounwind uwtable
define linkonce_odr hidden noundef ptr @_ZN18GrowableArrayCHeapI22ZPhysicalMemorySegmentL8MEMFLAGS5EE8allocateEiS1_(i32 noundef %0, i8 noundef zeroext %1) #1 comdat align 2 {
  %3 = alloca ptr, align 8
  %4 = alloca i32, align 4
  %5 = alloca i8, align 1
  store i32 %0, ptr %4, align 4
  store i8 %1, ptr %5, align 1
  %6 = load i32, ptr %4, align 4
  %7 = icmp eq i32 %6, 0
  br i1 %7, label %8, label %9

8:                                                ; preds = %2
  store ptr null, ptr %3, align 8
  br label %13

9:                                                ; preds = %2
  %10 = load i32, ptr %4, align 4
  %11 = load i8, ptr %5, align 1
  %12 = call noundef ptr @_ZN27GrowableArrayCHeapAllocator8allocateEii8MEMFLAGS(i32 noundef %10, i32 noundef 24, i8 noundef zeroext %11)
  store ptr %12, ptr %3, align 8
  br label %13

13:                                               ; preds = %9, %8
  %14 = load ptr, ptr %3, align 8
  ret ptr %14
}

; Function Attrs: mustprogress nounwind uwtable
define linkonce_odr hidden void @_ZN17GrowableArrayBaseD2Ev(ptr noundef nonnull align 4 dereferenceable(8) %0) unnamed_addr #1 comdat align 2 {
  %2 = alloca ptr, align 8
  store ptr %0, ptr %2, align 8
  ret void
}

; Function Attrs: mustprogress nounwind uwtable
define linkonce_odr hidden void @_ZN18GrowableArrayCHeapI22ZPhysicalMemorySegmentL8MEMFLAGS5EE10deallocateEPS0_(ptr noundef nonnull align 8 dereferenceable(16) %0, ptr noundef %1) #1 comdat align 2 {
  %3 = alloca ptr, align 8
  %4 = alloca ptr, align 8
  store ptr %0, ptr %3, align 8
  store ptr %1, ptr %4, align 8
  %5 = load ptr, ptr %4, align 8
  call void @_ZN27GrowableArrayCHeapAllocator10deallocateEPv(ptr noundef %5)
  ret void
}

; Function Attrs: mustprogress nounwind uwtable
define linkonce_odr hidden noundef ptr @_ZN18GrowableArrayCHeapI22ZPhysicalMemorySegmentL8MEMFLAGS5EE8allocateEv(ptr noundef nonnull align 8 dereferenceable(16) %0) #1 comdat align 2 {
  %2 = alloca ptr, align 8
  store ptr %0, ptr %2, align 8
  %3 = load ptr, ptr %2, align 8
  %4 = getelementptr inbounds %class.GrowableArrayBase, ptr %3, i32 0, i32 1
  %5 = load i32, ptr %4, align 4
  %6 = call noundef ptr @_ZN18GrowableArrayCHeapI22ZPhysicalMemorySegmentL8MEMFLAGS5EE8allocateEiS1_(i32 noundef %5, i8 noundef zeroext 5)
  ret ptr %6
}

; Function Attrs: mustprogress nounwind uwtable
define linkonce_odr hidden void @_ZN17GrowableArrayViewI22ZPhysicalMemorySegmentED2Ev(ptr noundef nonnull align 8 dereferenceable(16) %0) unnamed_addr #1 comdat align 2 {
  %2 = alloca ptr, align 8
  store ptr %0, ptr %2, align 8
  %3 = load ptr, ptr %2, align 8
  call void @_ZN17GrowableArrayBaseD2Ev(ptr noundef nonnull align 4 dereferenceable(8) %3) #8
  ret void
}

; Function Attrs: mustprogress nounwind uwtable
define linkonce_odr hidden void @_ZN26GrowableArrayWithAllocatorI22ZPhysicalMemorySegment18GrowableArrayCHeapIS0_L8MEMFLAGS5EEE13shrink_to_fitEv(ptr noundef nonnull align 8 dereferenceable(16) %0) #1 comdat align 2 {
  %2 = alloca ptr, align 8
  %3 = alloca i32, align 4
  %4 = alloca i32, align 4
  %5 = alloca ptr, align 8
  %6 = alloca ptr, align 8
  %7 = alloca i32, align 4
  %8 = alloca i32, align 4
  store ptr %0, ptr %2, align 8
  %9 = load ptr, ptr %2, align 8
  %10 = getelementptr inbounds %class.GrowableArrayBase, ptr %9, i32 0, i32 1
  %11 = load i32, ptr %10, align 4
  store i32 %11, ptr %3, align 4
  %12 = getelementptr inbounds %class.GrowableArrayBase, ptr %9, i32 0, i32 0
  %13 = load i32, ptr %12, align 8
  store i32 %13, ptr %4, align 4
  %14 = load i32, ptr %4, align 4
  %15 = load i32, ptr %3, align 4
  %16 = icmp eq i32 %14, %15
  br i1 %16, label %17, label %18

17:                                               ; preds = %1
  br label %61

18:                                               ; preds = %1
  %19 = getelementptr inbounds %class.GrowableArrayView, ptr %9, i32 0, i32 1
  %20 = load ptr, ptr %19, align 8
  store ptr %20, ptr %5, align 8
  store ptr null, ptr %6, align 8
  %21 = load i32, ptr %4, align 4
  %22 = getelementptr inbounds %class.GrowableArrayBase, ptr %9, i32 0, i32 1
  store i32 %21, ptr %22, align 4
  %23 = load i32, ptr %4, align 4
  %24 = icmp sgt i32 %23, 0
  br i1 %24, label %25, label %44

25:                                               ; preds = %18
  %26 = call noundef ptr @_ZN18GrowableArrayCHeapI22ZPhysicalMemorySegmentL8MEMFLAGS5EE8allocateEv(ptr noundef nonnull align 8 dereferenceable(16) %9)
  store ptr %26, ptr %6, align 8
  store i32 0, ptr %7, align 4
  br label %27

27:                                               ; preds = %40, %25
  %28 = load i32, ptr %7, align 4
  %29 = load i32, ptr %4, align 4
  %30 = icmp slt i32 %28, %29
  br i1 %30, label %31, label %43

31:                                               ; preds = %27
  %32 = load ptr, ptr %6, align 8
  %33 = load i32, ptr %7, align 4
  %34 = sext i32 %33 to i64
  %35 = getelementptr inbounds %class.ZPhysicalMemorySegment, ptr %32, i64 %34
  %36 = load ptr, ptr %5, align 8
  %37 = load i32, ptr %7, align 4
  %38 = sext i32 %37 to i64
  %39 = getelementptr inbounds %class.ZPhysicalMemorySegment, ptr %36, i64 %38
  call void @llvm.memcpy.p0.p0.i64(ptr align 8 %35, ptr align 8 %39, i64 24, i1 false)
  br label %40

40:                                               ; preds = %31
  %41 = load i32, ptr %7, align 4
  %42 = add nsw i32 %41, 1
  store i32 %42, ptr %7, align 4
  br label %27, !llvm.loop !6

43:                                               ; preds = %27
  br label %44

44:                                               ; preds = %43, %18
  store i32 0, ptr %8, align 4
  br label %45

45:                                               ; preds = %50, %44
  %46 = load i32, ptr %8, align 4
  %47 = load i32, ptr %3, align 4
  %48 = icmp slt i32 %46, %47
  br i1 %48, label %49, label %53

49:                                               ; preds = %45
  br label %50

50:                                               ; preds = %49
  %51 = load i32, ptr %8, align 4
  %52 = add nsw i32 %51, 1
  store i32 %52, ptr %8, align 4
  br label %45, !llvm.loop !8

53:                                               ; preds = %45
  %54 = load ptr, ptr %5, align 8
  %55 = icmp ne ptr %54, null
  br i1 %55, label %56, label %58

56:                                               ; preds = %53
  %57 = load ptr, ptr %5, align 8
  call void @_ZN18GrowableArrayCHeapI22ZPhysicalMemorySegmentL8MEMFLAGS5EE10deallocateEPS0_(ptr noundef nonnull align 8 dereferenceable(16) %9, ptr noundef %57)
  br label %58

58:                                               ; preds = %56, %53
  %59 = load ptr, ptr %6, align 8
  %60 = getelementptr inbounds %class.GrowableArrayView, ptr %9, i32 0, i32 1
  store ptr %59, ptr %60, align 8
  br label %61

61:                                               ; preds = %58, %17
  ret void
}

; Function Attrs: mustprogress nounwind uwtable
define linkonce_odr hidden void @_ZN17GrowableArrayBase5clearEv(ptr noundef nonnull align 4 dereferenceable(8) %0) #1 comdat align 2 {
  %2 = alloca ptr, align 8
  store ptr %0, ptr %2, align 8
  %3 = load ptr, ptr %2, align 8
  %4 = getelementptr inbounds %class.GrowableArrayBase, ptr %3, i32 0, i32 0
  store i32 0, ptr %4, align 4
  ret void
}

; Function Attrs: mustprogress nounwind uwtable
define linkonce_odr hidden void @_ZN26GrowableArrayWithAllocatorI22ZPhysicalMemorySegment18GrowableArrayCHeapIS0_L8MEMFLAGS5EEED2Ev(ptr noundef nonnull align 8 dereferenceable(16) %0) unnamed_addr #1 comdat align 2 {
  %2 = alloca ptr, align 8
  store ptr %0, ptr %2, align 8
  %3 = load ptr, ptr %2, align 8
  call void @_ZN17GrowableArrayViewI22ZPhysicalMemorySegmentED2Ev(ptr noundef nonnull align 8 dereferenceable(16) %3) #8
  ret void
}

; Function Attrs: mustprogress nounwind uwtable
define linkonce_odr hidden void @_ZN26GrowableArrayWithAllocatorI22ZPhysicalMemorySegment18GrowableArrayCHeapIS0_L8MEMFLAGS5EEE20clear_and_deallocateEv(ptr noundef nonnull align 8 dereferenceable(16) %0) #1 comdat align 2 {
  %2 = alloca ptr, align 8
  store ptr %0, ptr %2, align 8
  %3 = load ptr, ptr %2, align 8
  call void @_ZN17GrowableArrayBase5clearEv(ptr noundef nonnull align 4 dereferenceable(8) %3)
  call void @_ZN26GrowableArrayWithAllocatorI22ZPhysicalMemorySegment18GrowableArrayCHeapIS0_L8MEMFLAGS5EEE13shrink_to_fitEv(ptr noundef nonnull align 8 dereferenceable(16) %3)
  ret void
}

; Function Attrs: mustprogress nounwind uwtable
define linkonce_odr hidden void @_ZN18GrowableArrayCHeapI22ZPhysicalMemorySegmentL8MEMFLAGS5EED2Ev(ptr noundef nonnull align 8 dereferenceable(16) %0) unnamed_addr #1 comdat align 2 {
  %2 = alloca ptr, align 8
  store ptr %0, ptr %2, align 8
  %3 = load ptr, ptr %2, align 8
  call void @_ZN26GrowableArrayWithAllocatorI22ZPhysicalMemorySegment18GrowableArrayCHeapIS0_L8MEMFLAGS5EEE20clear_and_deallocateEv(ptr noundef nonnull align 8 dereferenceable(16) %3)
  call void @_ZN26GrowableArrayWithAllocatorI22ZPhysicalMemorySegment18GrowableArrayCHeapIS0_L8MEMFLAGS5EEED2Ev(ptr noundef nonnull align 8 dereferenceable(16) %3) #8
  ret void
}

; Function Attrs: mustprogress nounwind uwtable
define linkonce_odr hidden void @_ZN15ZPhysicalMemoryD2Ev(ptr noundef nonnull align 8 dereferenceable(16) %0) unnamed_addr #1 comdat align 2 {
  %2 = alloca ptr, align 8
  store ptr %0, ptr %2, align 8
  %3 = load ptr, ptr %2, align 8
  %4 = getelementptr inbounds %class.ZPhysicalMemory, ptr %3, i32 0, i32 0
  call void @_ZN18GrowableArrayCHeapI22ZPhysicalMemorySegmentL8MEMFLAGS5EED2Ev(ptr noundef nonnull align 8 dereferenceable(16) %4) #8
  ret void
}

; Function Attrs: mustprogress nounwind uwtable
define hidden noundef ptr @_ZN5ZPage5splitE9ZPageTypem(ptr noundef nonnull align 8 dereferenceable(192) %0, i8 noundef zeroext %1, i64 noundef %2) #1 align 2 {
  %4 = alloca ptr, align 8
  %5 = alloca i8, align 1
  %6 = alloca i64, align 8
  %7 = alloca %class.ZPhysicalMemory, align 8
  store ptr %0, ptr %4, align 8
  store i8 %1, ptr %5, align 1
  store i64 %2, ptr %6, align 8
  %8 = load ptr, ptr %4, align 8
  %9 = getelementptr inbounds %class.ZPage, ptr %8, i32 0, i32 11
  %10 = load i64, ptr %6, align 8
  call void @_ZN15ZPhysicalMemory5splitEm(ptr dead_on_unwind writable sret(%class.ZPhysicalMemory) align 8 %7, ptr noundef nonnull align 8 dereferenceable(16) %9, i64 noundef %10)
  %11 = load i8, ptr %5, align 1
  %12 = call noundef ptr @_ZN5ZPage15split_with_pmemE9ZPageTypeRK15ZPhysicalMemory(ptr noundef nonnull align 8 dereferenceable(192) %8, i8 noundef zeroext %11, ptr noundef nonnull align 8 dereferenceable(16) %7)
  call void @_ZN15ZPhysicalMemoryD2Ev(ptr noundef nonnull align 8 dereferenceable(16) %7) #8
  ret ptr %12
}