; Function Attrs: mustprogress nounwind uwtable
define hidden noundef ptr @_ZN5ZPage5splitE9ZPageTypem(ptr noundef nonnull align 8 dereferenceable(192) %0, i8 noundef zeroext %1, i64 noundef %2) local_unnamed_addr #0 align 2 {
  %4 = alloca %class.ZPhysicalMemory, align 8
  %5 = getelementptr inbounds i8, ptr %0, i64 160
  call void @_ZN15ZPhysicalMemory5splitEm(ptr dead_on_unwind nonnull writable sret(%class.ZPhysicalMemory) align 8 %4, ptr noundef nonnull align 8 dereferenceable(16) %5, i64 noundef %2) #13
  %6 = call noundef ptr @_ZN5ZPage15split_with_pmemE9ZPageTypeRK15ZPhysicalMemory(ptr noundef nonnull align 8 dereferenceable(192) %0, i8 noundef zeroext %1, ptr noundef nonnull align 8 dereferenceable(16) %4)
  store i32 0, ptr %4, align 8
  %7 = getelementptr inbounds i8, ptr %4, i64 4
  %8 = load i32, ptr %7, align 4
  %9 = icmp eq i32 %8, 0
  br i1 %9, label %_ZN15ZPhysicalMemoryD2Ev.exit, label %.loopexit.i.i.i.i

.loopexit.i.i.i.i:                                ; preds = %3
  %10 = getelementptr inbounds i8, ptr %4, i64 8
  %11 = load ptr, ptr %10, align 8
  store i32 0, ptr %7, align 4
  %.not.i.i.i.i = icmp eq ptr %11, null
  br i1 %.not.i.i.i.i, label %_ZN15ZPhysicalMemoryD2Ev.exit, label %.loopexit.thread.i.i.i.i

.loopexit.thread.i.i.i.i:                         ; preds = %.loopexit.i.i.i.i
  call void @_ZN27GrowableArrayCHeapAllocator10deallocateEPv(ptr noundef nonnull %11) #13
  br label %_ZN15ZPhysicalMemoryD2Ev.exit

_ZN15ZPhysicalMemoryD2Ev.exit:                    ; preds = %.loopexit.i.i.i.i, %.loopexit.thread.i.i.i.i, %3
  ret ptr %6
}